; Function Attrs: nounwind uwtable
define dso_local void @index_deform_tuple(ptr noundef %0, ptr noundef captures(none) %1, ptr noundef writeonly captures(none) %2, ptr noundef writeonly captures(none) %3) local_unnamed_addr #0 {
  %5 = getelementptr inbounds nuw i8, ptr %0, i64 8
  %6 = getelementptr inbounds nuw i8, ptr %0, i64 6
  %7 = load i16, ptr %6, align 2
  %.not.i = icmp sgt i16 %7, -1
  %..i = select i1 %.not.i, i64 8, i64 16
  %8 = getelementptr inbounds nuw i8, ptr %0, i64 %..i
  %.lobit = lshr i16 %7, 15
  %9 = zext nneg i16 %.lobit to i32
  tail call void @index_deform_tuple_internal(ptr noundef %1, ptr noundef %2, ptr noundef %3, ptr noundef nonnull %8, ptr noundef nonnull %5, i32 noundef %9)
  ret void
}